; Function Attrs: mustprogress uwtable
define noundef zeroext i1 @_ZN6google8protobuf11MessageLite20ParsePartialFromCordERKN4absl12lts_202308024CordE(ptr noundef nonnull align 8 dereferenceable(16) %this, ptr noundef nonnull align 8 dereferenceable(16) %cord) local_unnamed_addr #3 align 2 {
entry:
  %ref.tmp = alloca %"struct.google::protobuf::internal::SourceWrapper", align 8
  store ptr %cord, ptr %ref.tmp, align 8
  %vtable.i = load ptr, ptr %this, align 8
  %vfn.i = getelementptr inbounds i8, ptr %vtable.i, i64 24
  %0 = load ptr, ptr %vfn.i, align 8
  tail call void %0(ptr noundef nonnull align 8 dereferenceable(16) %this)
  %call.i.i = call noundef zeroext i1 @_ZNK6google8protobuf8internal13SourceWrapperIN4absl12lts_202308024CordEE9MergeIntoILb0EEEbPNS0_11MessageLiteENS8_10ParseFlagsE(ptr noundef nonnull align 8 dereferenceable(8) %ref.tmp, ptr noundef nonnull %this, i32 noundef 3)
  ret i1 %call.i.i
}